; Function Attrs: nounwind uwtable
define internal range(i32 -2147483648, 1) i32 @run_inter(ptr readnone captures(none) %0, ptr noundef %1, ptr noundef readonly captures(none) %2) #0 {
  %4 = getelementptr inbounds nuw i8, ptr %1, i64 4580552
  %5 = load ptr, ptr %4, align 8, !tbaa !60
  %6 = getelementptr inbounds nuw i8, ptr %5, i64 21896
  %7 = load ptr, ptr %6, align 8, !tbaa !178
  %8 = getelementptr inbounds nuw i8, ptr %2, i64 28
  %9 = load i32, ptr %8, align 4, !tbaa !111
  %10 = tail call i32 @ff_vvc_predict_inter(ptr noundef %1, i32 noundef %9) #7
  %11 = icmp slt i32 %10, 0
  br i1 %11, label %19, label %12

12:                                               ; preds = %3
  %13 = sext i32 %9 to i64
  %14 = getelementptr inbounds %struct.CTU, ptr %7, i64 %13, i32 2
  %15 = load i32, ptr %14, align 4, !tbaa !180
  %.not = icmp eq i32 %15, 0
  br i1 %.not, label %19, label %16

16:                                               ; preds = %12
  %17 = getelementptr inbounds nuw i8, ptr %2, i64 24
  %18 = load i32, ptr %17, align 8, !tbaa !83
  tail call fastcc void @report_frame_progress(ptr noundef nonnull %5, i32 noundef %18, i32 noundef 0)
  br label %19

19:                                               ; preds = %12, %16, %3
  %.0 = phi i32 [ %10, %3 ], [ 0, %16 ], [ 0, %12 ]
  ret i32 %.0
}